; Function Attrs: mustprogress null_pointer_is_valid sspstrong uwtable
define internal void @"_ZN9QtPrivate18QFunctorSlotObjectIZN19WiresharkMainWindow22connectEditMenuActionsEvE4$_21Li0ENS_4ListIJEEEvE4implEiPNS_15QSlotObjectBaseEP7QObjectPPvPb"(i32 noundef %0, ptr noundef %1, ptr readnone captures(none) %2, ptr readnone captures(none) %3, ptr readnone captures(none) %4) #0 align 2 {
  switch i32 %0, label %13 [
    i32 0, label %6
    i32 1, label %9
  ]

6:                                                ; preds = %5
  %7 = icmp eq ptr %1, null
  br i1 %7, label %13, label %8

8:                                                ; preds = %6
  tail call void @_ZdlPvm(ptr noundef nonnull %1, i64 noundef 24) #26
  br label %13

9:                                                ; preds = %5
  %10 = getelementptr inbounds nuw i8, ptr %1, i64 16
  %.val = load ptr, ptr %10, align 8
  %11 = getelementptr inbounds nuw i8, ptr %.val, i64 272
  %12 = load ptr, ptr %11, align 8
  tail call void @_ZN10PacketList16setTimeReferenceEv(ptr noundef align 8 dereferenceable_or_null(432) %12)
  tail call void @_ZN19WiresharkMainWindow25setMenusForSelectedPacketEv(ptr noundef align 8 dereferenceable_or_null(560) %.val)
  br label %13

13:                                               ; preds = %6, %8, %9, %5
  ret void
}